; Function Attrs: nounwind uwtable
define i32 @Card_AddCardinConstrPairWise(ptr noundef %0, ptr noundef readonly captures(none) %1) local_unnamed_addr #0 {
  %3 = alloca i32, align 4
  %4 = getelementptr i8, ptr %1, i64 4
  %.val = load i32, ptr %4, align 4
  store i32 %.val, ptr %3, align 4
  %5 = getelementptr i8, ptr %1, i64 8
  %.val3 = load ptr, ptr %5, align 8
  %6 = add nsw i32 %.val, -1
  call fastcc void @Card_AddCardinConstrRange(ptr noundef %0, ptr noundef %.val3, i32 noundef 0, i32 noundef %6, ptr noundef %3)
  %7 = load i32, ptr %3, align 4
  ret i32 %7
}